target datalayout = "e-m:e-p270:32:32-p271:32:32-p272:64:64-i64:64-i128:128-f80:128-n8:16:32:64-S128"
target triple = "x86_64-pc-linux-gnu"

%struct.AVChannelLayout = type { i32, i32, %union.anon, ptr }
%union.anon = type { i64 }
%struct.AACDecContext = type { ptr, ptr, %struct.AACDecDSP, %struct.AACDecProc, ptr, i32, %struct.DynamicRangeControl, [4 x [64 x ptr]], [4 x [64 x ptr]], i32, i32, [8 x i8], %union.anon.0, %union.anon.1, ptr, ptr, ptr, ptr, ptr, ptr, ptr, ptr, ptr, ptr, ptr, ptr, ptr, ptr, ptr, ptr, ptr, ptr, %union.anon.2, i32, [64 x ptr], i32, i32, i32, [2 x %struct.OutputConfiguration], i32, i32, i32, i32, i32, i32, [8 x i8] }
%struct.AACDecDSP = type { ptr, ptr, ptr, ptr, ptr, ptr, ptr, ptr, ptr, ptr, ptr, ptr, ptr, ptr, ptr }
%struct.AACDecProc = type { ptr, ptr, ptr, ptr, ptr, ptr }
%struct.DynamicRangeControl = type { i32, [17 x i32], [17 x i32], [64 x i32], i32, i32, [17 x i32], i32 }
%union.anon.0 = type { [1024 x i32] }
%union.anon.1 = type { [128 x i32] }
%union.anon.2 = type { ptr }
%struct.OutputConfiguration = type { %struct.MPEG4AudioConfig, [256 x [3 x i8]], i32, %struct.AVChannelLayout, i32, %struct.AACUSACConfig }
%struct.MPEG4AudioConfig = type { i32, i32, i32, i32, i32, i32, i32, i32, i32, i32, i32, i32 }
%struct.AACUSACConfig = type { i8, i16, i16, [64 x %struct.AACUsacElemConfig], i32, %struct.anon.6 }
%struct.AACUsacElemConfig = type { i32, i8, i8, %struct.anon, %struct.anon.4, %struct.anon.5 }
%struct.anon = type { i32, i8, %struct.anon.3 }
%struct.anon.3 = type { i8, i8, i8, i8, i8, i8, i8, i8 }
%struct.anon.4 = type { i8, i8, i8, i8, i8, i8, i8, i8, i8 }
%struct.anon.5 = type { i32, i8, i32, i32, ptr }
%struct.anon.6 = type { i8, i8, [64 x %struct.AACUSACLoudnessInfo], i8, i8, [64 x %struct.AACUSACLoudnessInfo] }
%struct.AACUSACLoudnessInfo = type <{ i16, %struct.anon.7, %struct.anon.8, i8, [16 x %struct.anon.9], i8 }>
%struct.anon.7 = type { i16 }
%struct.anon.8 = type { i32 }
%struct.anon.9 = type { i8, i8, i8 }
%struct.SingleChannelElement = type { %struct.IndividualChannelStream, %struct.AACUsacElemData, %struct.TemporalNoiseShaping, [128 x i32], [128 x i32], %union.anon.15, [12 x i8], %union.anon.16, %union.anon.17, %union.anon.18, %union.anon.19, %union.anon.20, %union.anon.21, %union.anon.22 }
%struct.IndividualChannelStream = type { i8, [2 x i32], [2 x i8], i32, i32, [8 x i8], %struct.LongTermPrediction, ptr, i32, i32, i32, i32, i32, i32, [41 x i8], [8 x i8] }
%struct.LongTermPrediction = type { i8, i16, %union.anon.10, [40 x i8] }
%union.anon.10 = type { i32 }
%struct.AACUsacElemData = type { i8, i8, i8, [16 x i8], %struct.anon.11, %struct.anon.12, %struct.anon.13, %struct.AACArithState }
%struct.anon.11 = type { i16, i32 }
%struct.anon.12 = type { i32, i8 }
%struct.anon.13 = type { i8, [8 x [8 x i32]] }
%struct.AACArithState = type { [513 x i8], i32, [4 x i8], i16 }
%struct.TemporalNoiseShaping = type { i32, [8 x i32], [8 x [4 x i32]], [8 x [4 x i32]], [8 x [4 x i32]], %union.anon.14 }
%union.anon.14 = type { [8 x [4 x [20 x i32]]] }
%union.anon.15 = type { [128 x i32] }
%union.anon.16 = type { [1024 x i32] }
%union.anon.17 = type { [1024 x i32] }
%union.anon.18 = type { [1536 x i32] }
%union.anon.19 = type { [2048 x i32] }
%union.anon.20 = type { [3072 x i32] }
%union.anon.21 = type { ptr }
%union.anon.22 = type { ptr }
%struct.ChannelElement = type { i32, i8, [128 x i8], [11 x i8], [2 x %struct.SingleChannelElement], %struct.ChannelCoupling, [8 x i8], %struct.AACUsacStereo }
%struct.ChannelCoupling = type { i32, i32, [8 x i32], [8 x i32], [8 x i32], %union.anon.23 }
%union.anon.23 = type { [16 x [120 x i32]] }
%struct.AACUsacStereo = type { i8, i8, i8, i8, i8, i8, i8, i8, [128 x i8], [8 x i8], %union.anon.24, %union.anon.25, %union.anon.26, %union.anon.27, %union.anon.28, %union.anon.29, %union.anon.30 }
%union.anon.24 = type { [1024 x i32] }
%union.anon.25 = type { [1024 x i32] }
%union.anon.26 = type { [1024 x i32] }
%union.anon.27 = type { [1024 x i32] }
%union.anon.28 = type { [1024 x i32] }
%union.anon.29 = type { [1024 x i32] }
%union.anon.30 = type { [1024 x i32] }

; Function Attrs: alwaysinline nounwind willreturn memory(none) uwtable
define internal i64 @av_clip64_c(i64 noundef %0, i64 noundef %1, i64 noundef %2) #10 {
  %4 = alloca i64, align 8
  %5 = alloca i64, align 8
  %6 = alloca i64, align 8
  %7 = alloca i64, align 8
  store i64 %0, ptr %5, align 8, !tbaa !209
  store i64 %1, ptr %6, align 8, !tbaa !209
  store i64 %2, ptr %7, align 8, !tbaa !209
  %8 = load i64, ptr %5, align 8, !tbaa !209
  %9 = load i64, ptr %6, align 8, !tbaa !209
  %10 = icmp slt i64 %8, %9
  br i1 %10, label %11, label %13

11:                                               ; preds = %3
  %12 = load i64, ptr %6, align 8, !tbaa !209
  store i64 %12, ptr %4, align 8
  br label %21

13:                                               ; preds = %3
  %14 = load i64, ptr %5, align 8, !tbaa !209
  %15 = load i64, ptr %7, align 8, !tbaa !209
  %16 = icmp sgt i64 %14, %15
  br i1 %16, label %17, label %19

17:                                               ; preds = %13
  %18 = load i64, ptr %7, align 8, !tbaa !209
  store i64 %18, ptr %4, align 8
  br label %21

19:                                               ; preds = %13
  %20 = load i64, ptr %5, align 8, !tbaa !209
  store i64 %20, ptr %4, align 8
  br label %21

21:                                               ; preds = %19, %17, %11
  %22 = load i64, ptr %4, align 8
  ret i64 %22
}

; Function Attrs: nounwind uwtable
define internal void @clip_output_fixed(ptr noundef %0, ptr noundef %1, i32 noundef %2, i32 noundef %3) #3 {
  %5 = alloca ptr, align 8
  %6 = alloca ptr, align 8
  %7 = alloca i32, align 4
  %8 = alloca i32, align 4
  %9 = alloca i32, align 4
  store ptr %0, ptr %5, align 8, !tbaa !29
  store ptr %1, ptr %6, align 8, !tbaa !80
  store i32 %2, ptr %7, align 4, !tbaa !71
  store i32 %3, ptr %8, align 4, !tbaa !71
  call void @llvm.lifetime.start.p0(i64 4, ptr %9) #13
  store i32 0, ptr %9, align 4, !tbaa !71
  br label %10

10:                                               ; preds = %75, %4
  %11 = load i32, ptr %9, align 4, !tbaa !71
  %12 = load i32, ptr %8, align 4, !tbaa !71
  %13 = icmp slt i32 %11, %12
  br i1 %13, label %15, label %14

14:                                               ; preds = %10
  call void @llvm.lifetime.end.p0(i64 4, ptr %9) #13
  br label %78

15:                                               ; preds = %10
  %16 = load ptr, ptr %6, align 8, !tbaa !80
  %17 = getelementptr inbounds nuw %struct.ChannelElement, ptr %16, i32 0, i32 4
  %18 = getelementptr inbounds [2 x %struct.SingleChannelElement], ptr %17, i64 0, i64 0
  %19 = getelementptr inbounds nuw %struct.SingleChannelElement, ptr %18, i32 0, i32 13
  %20 = load ptr, ptr %19, align 8, !tbaa !40
  %21 = load i32, ptr %9, align 4, !tbaa !71
  %22 = sext i32 %21 to i64
  %23 = getelementptr inbounds i32, ptr %20, i64 %22
  %24 = load i32, ptr %23, align 4, !tbaa !71
  %25 = sext i32 %24 to i64
  %26 = mul nsw i64 %25, 128
  %27 = call i64 @av_clip64_c(i64 noundef %26, i64 noundef -2147483648, i64 noundef 2147450879) #15
  %28 = trunc i64 %27 to i32
  %29 = add nsw i32 %28, 32768
  %30 = load ptr, ptr %6, align 8, !tbaa !80
  %31 = getelementptr inbounds nuw %struct.ChannelElement, ptr %30, i32 0, i32 4
  %32 = getelementptr inbounds [2 x %struct.SingleChannelElement], ptr %31, i64 0, i64 0
  %33 = getelementptr inbounds nuw %struct.SingleChannelElement, ptr %32, i32 0, i32 13
  %34 = load ptr, ptr %33, align 8, !tbaa !40
  %35 = load i32, ptr %9, align 4, !tbaa !71
  %36 = sext i32 %35 to i64
  %37 = getelementptr inbounds i32, ptr %34, i64 %36
  store i32 %29, ptr %37, align 4, !tbaa !71
  %38 = load i32, ptr %7, align 4, !tbaa !71
  %39 = icmp eq i32 %38, 1
  br i1 %39, label %51, label %40

40:                                               ; preds = %15
  %41 = load i32, ptr %7, align 4, !tbaa !71
  %42 = icmp eq i32 %41, 0
  br i1 %42, label %43, label %74

43:                                               ; preds = %40
  %44 = load ptr, ptr %5, align 8, !tbaa !29
  %45 = getelementptr inbounds nuw %struct.AACDecContext, ptr %44, i32 0, i32 38
  %46 = getelementptr inbounds [2 x %struct.OutputConfiguration], ptr %45, i64 0, i64 1
  %47 = getelementptr inbounds nuw %struct.OutputConfiguration, ptr %46, i32 0, i32 0
  %48 = getelementptr inbounds nuw %struct.MPEG4AudioConfig, ptr %47, i32 0, i32 10
  %49 = load i32, ptr %48, align 8, !tbaa !177
  %50 = icmp eq i32 %49, 1
  br i1 %50, label %51, label %74

51:                                               ; preds = %43, %15
  %52 = load ptr, ptr %6, align 8, !tbaa !80
  %53 = getelementptr inbounds nuw %struct.ChannelElement, ptr %52, i32 0, i32 4
  %54 = getelementptr inbounds [2 x %struct.SingleChannelElement], ptr %53, i64 0, i64 1
  %55 = getelementptr inbounds nuw %struct.SingleChannelElement, ptr %54, i32 0, i32 13
  %56 = load ptr, ptr %55, align 8, !tbaa !40
  %57 = load i32, ptr %9, align 4, !tbaa !71
  %58 = sext i32 %57 to i64
  %59 = getelementptr inbounds i32, ptr %56, i64 %58
  %60 = load i32, ptr %59, align 4, !tbaa !71
  %61 = sext i32 %60 to i64
  %62 = mul nsw i64 %61, 128
  %63 = call i64 @av_clip64_c(i64 noundef %62, i64 noundef -2147483648, i64 noundef 2147450879) #15
  %64 = trunc i64 %63 to i32
  %65 = add nsw i32 %64, 32768
  %66 = load ptr, ptr %6, align 8, !tbaa !80
  %67 = getelementptr inbounds nuw %struct.ChannelElement, ptr %66, i32 0, i32 4
  %68 = getelementptr inbounds [2 x %struct.SingleChannelElement], ptr %67, i64 0, i64 1
  %69 = getelementptr inbounds nuw %struct.SingleChannelElement, ptr %68, i32 0, i32 13
  %70 = load ptr, ptr %69, align 8, !tbaa !40
  %71 = load i32, ptr %9, align 4, !tbaa !71
  %72 = sext i32 %71 to i64
  %73 = getelementptr inbounds i32, ptr %70, i64 %72
  store i32 %65, ptr %73, align 4, !tbaa !71
  br label %74

74:                                               ; preds = %51, %43, %40
  br label %75

75:                                               ; preds = %74
  %76 = load i32, ptr %9, align 4, !tbaa !71
  %77 = add nsw i32 %76, 1
  store i32 %77, ptr %9, align 4, !tbaa !71
  br label %10, !llvm.loop !178

78:                                               ; preds = %14
  ret void
}