; Function Attrs: nofree norecurse nosync nounwind memory(readwrite, inaccessiblemem: none) uwtable
define internal void @clip_output_fixed(ptr noundef readonly captures(none) %0, ptr noundef readonly captures(none) %1, i32 noundef %2, i32 noundef %3) #7 {
  %5 = icmp sgt i32 %3, 0
  br i1 %5, label %.lr.ph, label %._crit_edge

.lr.ph:                                           ; preds = %4
  %6 = getelementptr inbounds nuw i8, ptr %1, i64 40488
  %7 = getelementptr inbounds nuw i8, ptr %0, i64 22512
  %8 = getelementptr inbounds nuw i8, ptr %1, i64 80840
  %wide.trip.count = zext nneg i32 %3 to i64
  br label %9

._crit_edge:                                      ; preds = %30, %4
  ret void

9:                                                ; preds = %.lr.ph, %30
  %indvars.iv = phi i64 [ 0, %.lr.ph ], [ %indvars.iv.next, %30 ]
  %10 = load ptr, ptr %6, align 8, !tbaa !58
  %11 = getelementptr inbounds nuw i32, ptr %10, i64 %indvars.iv
  %12 = load i32, ptr %11, align 4, !tbaa !64
  %13 = sext i32 %12 to i64
  %14 = shl nsw i64 %13, 7
  %15 = tail call i64 @llvm.smax.i64(i64 %14, i64 -2147483648)
  %.0.i = tail call i64 @llvm.smin.i64(i64 %15, i64 2147450879)
  %16 = trunc nsw i64 %.0.i to i32
  %17 = add nsw i32 %16, 32768
  store i32 %17, ptr %11, align 4, !tbaa !64
  switch i32 %2, label %30 [
    i32 1, label %21
    i32 0, label %18
  ]

18:                                               ; preds = %9
  %19 = load i32, ptr %7, align 8, !tbaa !174
  %20 = icmp eq i32 %19, 1
  br i1 %20, label %21, label %30

21:                                               ; preds = %9, %18
  %22 = load ptr, ptr %8, align 8, !tbaa !58
  %23 = getelementptr inbounds nuw i32, ptr %22, i64 %indvars.iv
  %24 = load i32, ptr %23, align 4, !tbaa !64
  %25 = sext i32 %24 to i64
  %26 = shl nsw i64 %25, 7
  %27 = tail call i64 @llvm.smax.i64(i64 %26, i64 -2147483648)
  %.0.i15 = tail call i64 @llvm.smin.i64(i64 %27, i64 2147450879)
  %28 = trunc nsw i64 %.0.i15 to i32
  %29 = add nsw i32 %28, 32768
  store i32 %29, ptr %23, align 4, !tbaa !64
  br label %30

30:                                               ; preds = %9, %18, %21
  %indvars.iv.next = add nuw nsw i64 %indvars.iv, 1
  %exitcond.not = icmp eq i64 %indvars.iv.next, %wide.trip.count
  br i1 %exitcond.not, label %._crit_edge, label %9, !llvm.loop !175
}